target datalayout = "e-m:e-p270:32:32-p271:32:32-p272:64:64-i64:64-i128:128-f80:128-n8:16:32:64-S128"
target triple = "x86_64-pc-linux-gnu"

@.str.8 = private unnamed_addr constant [10 x i8] c"0 seconds\00", align 1

; Function Attrs: null_pointer_is_valid sspstrong uwtable
define ptr @signed_time_secs_to_str(ptr noundef %0, i32 noundef %1) #0 {
  %3 = alloca ptr, align 8
  %4 = alloca ptr, align 8
  %5 = alloca i32, align 4
  %6 = alloca ptr, align 8
  %7 = alloca i32, align 4
  store ptr %0, ptr %4, align 8
  store i32 %1, ptr %5, align 4
  call void @llvm.lifetime.start.p0(i64 8, ptr %6) #8
  %8 = load i32, ptr %5, align 4
  %9 = icmp eq i32 %8, 0
  br i1 %9, label %10, label %13

10:                                               ; preds = %2
  %11 = load ptr, ptr %4, align 8
  %12 = call noalias ptr @wmem_strdup(ptr noundef %11, ptr noundef @.str.8)
  store ptr %12, ptr %3, align 8
  store i32 1, ptr %7, align 4
  br label %21

13:                                               ; preds = %2
  %14 = load ptr, ptr %4, align 8
  %15 = call noalias ptr @wmem_strbuf_new_sized(ptr noundef %14, i64 noundef 57)
  store ptr %15, ptr %6, align 8
  %16 = load i32, ptr %5, align 4
  %17 = sext i32 %16 to i64
  %18 = load ptr, ptr %6, align 8
  call void @signed_time_secs_to_str_buf(i64 noundef %17, i32 noundef 0, i1 noundef zeroext false, ptr noundef %18)
  %19 = load ptr, ptr %6, align 8
  %20 = call ptr @wmem_strbuf_finalize(ptr noundef %19)
  store ptr %20, ptr %3, align 8
  store i32 1, ptr %7, align 4
  br label %21

21:                                               ; preds = %13, %10
  call void @llvm.lifetime.end.p0(i64 8, ptr %6) #8
  %22 = load ptr, ptr %3, align 8
  ret ptr %22
}